target datalayout = "e-m:e-p270:32:32-p271:32:32-p272:64:64-i64:64-i128:128-f80:128-n8:16:32:64-S128"
target triple = "x86_64-pc-linux-gnu"

%struct.quic_conn_id_st = type { i8, [20 x i8] }

@.str = private unnamed_addr constant [13 x i8] c"connectivity\00", align 1
@.str.1 = private unnamed_addr constant [19 x i8] c"connection_started\00", align 1
@.str.2 = private unnamed_addr constant [32 x i8] c"connectivity:connection_started\00", align 1
@.str.3 = private unnamed_addr constant [9 x i8] c"protocol\00", align 1
@.str.4 = private unnamed_addr constant [5 x i8] c"quic\00", align 1
@.str.5 = private unnamed_addr constant [8 x i8] c"dst_cid\00", align 1

; Function Attrs: nounwind uwtable
define void @ossl_qlog_event_connectivity_connection_started(ptr noundef %0, ptr noundef %1) #0 {
  %3 = alloca ptr, align 8
  %4 = alloca ptr, align 8
  %5 = alloca ptr, align 8
  %6 = alloca i32, align 4
  store ptr %0, ptr %3, align 8, !tbaa !3
  store ptr %1, ptr %4, align 8, !tbaa !8
  call void @llvm.lifetime.start.p0(i64 8, ptr %5) #5
  %7 = load ptr, ptr %3, align 8, !tbaa !3
  store ptr %7, ptr %5, align 8, !tbaa !3
  call void @llvm.lifetime.start.p0(i64 4, ptr %6) #5
  store i32 1, ptr %6, align 4, !tbaa !10
  %8 = load ptr, ptr %5, align 8, !tbaa !3
  %9 = load i32, ptr %6, align 4, !tbaa !10
  %10 = call i32 @ossl_qlog_event_try_begin(ptr noundef %8, i32 noundef %9, ptr noundef @.str, ptr noundef @.str.1, ptr noundef @.str.2)
  %11 = icmp ne i32 %10, 0
  br i1 %11, label %12, label %23

12:                                               ; preds = %2
  %13 = load ptr, ptr %5, align 8, !tbaa !3
  call void @ossl_qlog_str(ptr noundef %13, ptr noundef @.str.3, ptr noundef @.str.4)
  %14 = load ptr, ptr %5, align 8, !tbaa !3
  %15 = load ptr, ptr %4, align 8, !tbaa !8
  %16 = getelementptr inbounds nuw %struct.quic_conn_id_st, ptr %15, i32 0, i32 1
  %17 = getelementptr inbounds [20 x i8], ptr %16, i64 0, i64 0
  %18 = load ptr, ptr %4, align 8, !tbaa !8
  %19 = getelementptr inbounds nuw %struct.quic_conn_id_st, ptr %18, i32 0, i32 0
  %20 = load i8, ptr %19, align 1, !tbaa !12
  %21 = zext i8 %20 to i64
  call void @ossl_qlog_bin(ptr noundef %14, ptr noundef @.str.5, ptr noundef %17, i64 noundef %21)
  %22 = load ptr, ptr %5, align 8, !tbaa !3
  call void @ossl_qlog_event_end(ptr noundef %22)
  br label %23

23:                                               ; preds = %12, %2
  call void @llvm.lifetime.end.p0(i64 4, ptr %6) #5
  call void @llvm.lifetime.end.p0(i64 8, ptr %5) #5
  ret void
}