; Function Attrs: nounwind uwtable
define void @ossl_qlog_event_connectivity_connection_started(ptr noundef %0, ptr noundef %1) local_unnamed_addr #0 {
  %3 = tail call i32 @ossl_qlog_event_try_begin(ptr noundef %0, i32 noundef 1, ptr noundef nonnull @.str, ptr noundef nonnull @.str.1, ptr noundef nonnull @.str.2) #3
  %.not = icmp eq i32 %3, 0
  br i1 %.not, label %8, label %4

4:                                                ; preds = %2
  tail call void @ossl_qlog_str(ptr noundef %0, ptr noundef nonnull @.str.3, ptr noundef nonnull @.str.4) #3
  %5 = getelementptr inbounds nuw i8, ptr %1, i64 1
  %6 = load i8, ptr %1, align 1, !tbaa !3
  %7 = zext i8 %6 to i64
  tail call void @ossl_qlog_bin(ptr noundef %0, ptr noundef nonnull @.str.5, ptr noundef nonnull %5, i64 noundef %7) #3
  tail call void @ossl_qlog_event_end(ptr noundef %0) #3
  br label %8

8:                                                ; preds = %4, %2
  ret void
}